target datalayout = "e-m:e-p270:32:32-p271:32:32-p272:64:64-i64:64-i128:128-f80:128-n8:16:32:64-S128"
target triple = "x86_64-pc-linux-gnu"

%"class.llvm::Value" = type { i8, i8, i16, i32, ptr, ptr }
%"class.llvm::Use" = type { ptr, ptr, ptr, ptr }

; Function Attrs: mustprogress nounwind uwtable
define linkonce_odr hidden void @_ZN4llvm3Use9addToListEPPS0_(ptr noundef nonnull align 8 dereferenceable(32) %0, ptr noundef %1) #1 comdat align 2 {
  %3 = alloca ptr, align 8
  %4 = alloca ptr, align 8
  store ptr %0, ptr %3, align 8
  store ptr %1, ptr %4, align 8
  %5 = load ptr, ptr %3, align 8
  %6 = load ptr, ptr %4, align 8
  %7 = load ptr, ptr %6, align 8
  %8 = getelementptr inbounds nuw %"class.llvm::Use", ptr %5, i32 0, i32 1
  store ptr %7, ptr %8, align 8
  %9 = getelementptr inbounds nuw %"class.llvm::Use", ptr %5, i32 0, i32 1
  %10 = load ptr, ptr %9, align 8
  %11 = icmp ne ptr %10, null
  br i1 %11, label %12, label %17

12:                                               ; preds = %2
  %13 = getelementptr inbounds nuw %"class.llvm::Use", ptr %5, i32 0, i32 1
  %14 = getelementptr inbounds nuw %"class.llvm::Use", ptr %5, i32 0, i32 1
  %15 = load ptr, ptr %14, align 8
  %16 = getelementptr inbounds nuw %"class.llvm::Use", ptr %15, i32 0, i32 2
  store ptr %13, ptr %16, align 8
  br label %17

17:                                               ; preds = %12, %2
  %18 = load ptr, ptr %4, align 8
  %19 = getelementptr inbounds nuw %"class.llvm::Use", ptr %5, i32 0, i32 2
  store ptr %18, ptr %19, align 8
  %20 = getelementptr inbounds nuw %"class.llvm::Use", ptr %5, i32 0, i32 2
  %21 = load ptr, ptr %20, align 8
  store ptr %5, ptr %21, align 8
  ret void
}

; Function Attrs: mustprogress nounwind uwtable
define linkonce_odr hidden void @_ZN4llvm5Value6addUseERNS_3UseE(ptr noundef nonnull align 8 dereferenceable(24) %0, ptr noundef nonnull align 8 dereferenceable(32) %1) #1 comdat align 2 {
  %3 = alloca ptr, align 8
  %4 = alloca ptr, align 8
  store ptr %0, ptr %3, align 8
  store ptr %1, ptr %4, align 8
  %5 = load ptr, ptr %3, align 8
  %6 = load ptr, ptr %4, align 8
  %7 = getelementptr inbounds nuw %"class.llvm::Value", ptr %5, i32 0, i32 5
  call void @_ZN4llvm3Use9addToListEPPS0_(ptr noundef nonnull align 8 dereferenceable(32) %6, ptr noundef %7)
  ret void
}

; Function Attrs: mustprogress nounwind uwtable
define linkonce_odr hidden void @_ZN4llvm3Use14removeFromListEv(ptr noundef nonnull align 8 dereferenceable(32) %0) #1 comdat align 2 {
  %2 = alloca ptr, align 8
  store ptr %0, ptr %2, align 8
  %3 = load ptr, ptr %2, align 8
  %4 = getelementptr inbounds nuw %"class.llvm::Use", ptr %3, i32 0, i32 1
  %5 = load ptr, ptr %4, align 8
  %6 = getelementptr inbounds nuw %"class.llvm::Use", ptr %3, i32 0, i32 2
  %7 = load ptr, ptr %6, align 8
  store ptr %5, ptr %7, align 8
  %8 = getelementptr inbounds nuw %"class.llvm::Use", ptr %3, i32 0, i32 1
  %9 = load ptr, ptr %8, align 8
  %10 = icmp ne ptr %9, null
  br i1 %10, label %11, label %17

11:                                               ; preds = %1
  %12 = getelementptr inbounds nuw %"class.llvm::Use", ptr %3, i32 0, i32 2
  %13 = load ptr, ptr %12, align 8
  %14 = getelementptr inbounds nuw %"class.llvm::Use", ptr %3, i32 0, i32 1
  %15 = load ptr, ptr %14, align 8
  %16 = getelementptr inbounds nuw %"class.llvm::Use", ptr %15, i32 0, i32 2
  store ptr %13, ptr %16, align 8
  br label %17

17:                                               ; preds = %11, %1
  ret void
}

; Function Attrs: mustprogress nounwind uwtable
define linkonce_odr hidden noundef ptr @_ZN4llvm16cast_convert_valINS_11PointerTypeEPNS_4TypeES3_E4doitEPKS2_(ptr noundef %0) #1 comdat align 2 {
  %2 = alloca ptr, align 8
  store ptr %0, ptr %2, align 8
  %3 = load ptr, ptr %2, align 8
  ret ptr %3
}

; Function Attrs: mustprogress nounwind uwtable
define linkonce_odr hidden void @_ZN4llvm3Use3setEPNS_5ValueE(ptr noundef nonnull align 8 dereferenceable(32) %0, ptr noundef %1) #1 comdat align 2 {
  %3 = alloca ptr, align 8
  %4 = alloca ptr, align 8
  store ptr %0, ptr %3, align 8
  store ptr %1, ptr %4, align 8
  %5 = load ptr, ptr %3, align 8
  %6 = getelementptr inbounds nuw %"class.llvm::Use", ptr %5, i32 0, i32 0
  %7 = load ptr, ptr %6, align 8
  %8 = icmp ne ptr %7, null
  br i1 %8, label %9, label %10

9:                                                ; preds = %2
  call void @_ZN4llvm3Use14removeFromListEv(ptr noundef nonnull align 8 dereferenceable(32) %5)
  br label %10

10:                                               ; preds = %9, %2
  %11 = load ptr, ptr %4, align 8
  %12 = getelementptr inbounds nuw %"class.llvm::Use", ptr %5, i32 0, i32 0
  store ptr %11, ptr %12, align 8
  %13 = load ptr, ptr %4, align 8
  %14 = icmp ne ptr %13, null
  br i1 %14, label %15, label %17

15:                                               ; preds = %10
  %16 = load ptr, ptr %4, align 8
  call void @_ZN4llvm5Value6addUseERNS_3UseE(ptr noundef nonnull align 8 dereferenceable(24) %16, ptr noundef nonnull align 8 dereferenceable(32) %5)
  br label %17

17:                                               ; preds = %15, %10
  ret void
}

; Function Attrs: mustprogress nounwind uwtable
define linkonce_odr hidden noundef ptr @_ZN4llvm8CastInfoINS_11PointerTypeEPNS_4TypeEvE6doCastERKS3_(ptr noundef nonnull align 8 dereferenceable(8) %0) #1 comdat align 2 {
  %2 = alloca ptr, align 8
  store ptr %0, ptr %2, align 8
  %3 = load ptr, ptr %2, align 8
  %4 = load ptr, ptr %3, align 8
  %5 = call noundef ptr @_ZN4llvm16cast_convert_valINS_11PointerTypeEPNS_4TypeES3_E4doitEPKS2_(ptr noundef %4)
  ret ptr %5
}

; Function Attrs: mustprogress nounwind uwtable
define linkonce_odr hidden noundef ptr @_ZN4llvm3UseaSEPNS_5ValueE(ptr noundef nonnull align 8 dereferenceable(32) %0, ptr noundef %1) #1 comdat align 2 {
  %3 = alloca ptr, align 8
  %4 = alloca ptr, align 8
  store ptr %0, ptr %3, align 8
  store ptr %1, ptr %4, align 8
  %5 = load ptr, ptr %3, align 8
  %6 = load ptr, ptr %4, align 8
  call void @_ZN4llvm3Use3setEPNS_5ValueE(ptr noundef nonnull align 8 dereferenceable(32) %5, ptr noundef %6)
  %7 = load ptr, ptr %4, align 8
  ret ptr %7
}

; Function Attrs: mustprogress nounwind uwtable
define linkonce_odr hidden noundef ptr @_ZN4llvm21FixedNumOperandTraitsINS_18DSOLocalEquivalentELj1EE8op_beginEPS1_(ptr noundef %0) #1 comdat align 2 {
  %2 = alloca ptr, align 8
  store ptr %0, ptr %2, align 8
  %3 = load ptr, ptr %2, align 8
  %4 = getelementptr inbounds %"class.llvm::Use", ptr %3, i64 -1
  ret ptr %4
}

; Function Attrs: mustprogress nounwind uwtable
define linkonce_odr hidden void @_ZN4llvm4UserC2EPNS_4TypeEjPNS_3UseEj(ptr noundef nonnull align 8 dereferenceable(24) %0, ptr noundef %1, i32 noundef %2, ptr noundef %3, i32 noundef %4) unnamed_addr #1 comdat align 2 {
  %6 = alloca ptr, align 8
  %7 = alloca ptr, align 8
  %8 = alloca i32, align 4
  %9 = alloca ptr, align 8
  %10 = alloca i32, align 4
  store ptr %0, ptr %6, align 8
  store ptr %1, ptr %7, align 8
  store i32 %2, ptr %8, align 4
  store ptr %3, ptr %9, align 8
  store i32 %4, ptr %10, align 4
  %11 = load ptr, ptr %6, align 8
  %12 = load ptr, ptr %7, align 8
  %13 = load i32, ptr %8, align 4
  call void @_ZN4llvm5ValueC2EPNS_4TypeEj(ptr noundef nonnull align 8 dereferenceable(24) %11, ptr noundef %12, i32 noundef %13)
  %14 = load i32, ptr %10, align 4
  %15 = getelementptr inbounds nuw %"class.llvm::Value", ptr %11, i32 0, i32 3
  %16 = load i32, ptr %15, align 4
  %17 = and i32 %14, 134217727
  %18 = and i32 %16, -134217728
  %19 = or i32 %18, %17
  store i32 %19, ptr %15, align 4
  ret void
}

; Function Attrs: mustprogress nounwind uwtable
define linkonce_odr hidden noundef nonnull align 8 dereferenceable(32) ptr @_ZN4llvm4User6OpFromILi0ENS_18DSOLocalEquivalentEEERNS_3UseEPKT0_(ptr noundef %0) #1 comdat align 2 {
  %2 = alloca ptr, align 8
  store ptr %0, ptr %2, align 8
  %3 = load ptr, ptr %2, align 8
  %4 = call noundef ptr @_ZN4llvm21FixedNumOperandTraitsINS_18DSOLocalEquivalentELj1EE8op_beginEPS1_(ptr noundef %3)
  %5 = getelementptr inbounds %"class.llvm::Use", ptr %4, i64 0
  ret ptr %5
}

; Function Attrs: mustprogress nounwind uwtable
define linkonce_odr hidden noundef ptr @_ZN4llvm4castINS_11PointerTypeENS_4TypeEEEDcPT0_(ptr noundef %0) #1 comdat {
  %2 = alloca ptr, align 8
  store ptr %0, ptr %2, align 8
  %3 = call noundef ptr @_ZN4llvm8CastInfoINS_11PointerTypeEPNS_4TypeEvE6doCastERKS3_(ptr noundef nonnull align 8 dereferenceable(8) %2)
  ret ptr %3
}

; Function Attrs: mustprogress nounwind uwtable
define linkonce_odr hidden noundef ptr @_ZNK4llvm5Value7getTypeEv(ptr noundef nonnull align 8 dereferenceable(24) %0) #1 comdat align 2 {
  %2 = alloca ptr, align 8
  store ptr %0, ptr %2, align 8
  %3 = load ptr, ptr %2, align 8
  %4 = getelementptr inbounds nuw %"class.llvm::Value", ptr %3, i32 0, i32 4
  %5 = load ptr, ptr %4, align 8
  ret ptr %5
}

; Function Attrs: mustprogress nounwind uwtable
define linkonce_odr hidden void @_ZN4llvm18DSOLocalEquivalent10setOperandEjPNS_5ValueE(ptr noundef nonnull align 8 dereferenceable(24) %0, i32 noundef %1, ptr noundef %2) #1 comdat align 2 {
  %4 = alloca ptr, align 8
  %5 = alloca i32, align 4
  %6 = alloca ptr, align 8
  store ptr %0, ptr %4, align 8
  store i32 %1, ptr %5, align 4
  store ptr %2, ptr %6, align 8
  %7 = load ptr, ptr %4, align 8
  %8 = load ptr, ptr %6, align 8
  %9 = call noundef ptr @_ZN4llvm21FixedNumOperandTraitsINS_18DSOLocalEquivalentELj1EE8op_beginEPS1_(ptr noundef %7)
  %10 = load i32, ptr %5, align 4
  %11 = zext i32 %10 to i64
  %12 = getelementptr inbounds %"class.llvm::Use", ptr %9, i64 %11
  %13 = call noundef ptr @_ZN4llvm3UseaSEPNS_5ValueE(ptr noundef nonnull align 8 dereferenceable(32) %12, ptr noundef %8)
  ret void
}

; Function Attrs: mustprogress nounwind uwtable
define linkonce_odr hidden void @_ZN4llvm8ConstantC2EPNS_4TypeENS_5Value7ValueTyEPNS_3UseEj(ptr noundef nonnull align 8 dereferenceable(24) %0, ptr noundef %1, i32 noundef %2, ptr noundef %3, i32 noundef %4) unnamed_addr #1 comdat align 2 {
  %6 = alloca ptr, align 8
  %7 = alloca ptr, align 8
  %8 = alloca i32, align 4
  %9 = alloca ptr, align 8
  %10 = alloca i32, align 4
  store ptr %0, ptr %6, align 8
  store ptr %1, ptr %7, align 8
  store i32 %2, ptr %8, align 4
  store ptr %3, ptr %9, align 8
  store i32 %4, ptr %10, align 4
  %11 = load ptr, ptr %6, align 8
  %12 = load ptr, ptr %7, align 8
  %13 = load i32, ptr %8, align 4
  %14 = load ptr, ptr %9, align 8
  %15 = load i32, ptr %10, align 4
  call void @_ZN4llvm4UserC2EPNS_4TypeEjPNS_3UseEj(ptr noundef nonnull align 8 dereferenceable(24) %11, ptr noundef %12, i32 noundef %13, ptr noundef %14, i32 noundef %15)
  ret void
}

; Function Attrs: mustprogress nounwind uwtable
define linkonce_odr hidden noundef nonnull align 8 dereferenceable(32) ptr @_ZN4llvm18DSOLocalEquivalent2OpILi0EEERNS_3UseEv(ptr noundef nonnull align 8 dereferenceable(24) %0) #1 comdat align 2 {
  %2 = alloca ptr, align 8
  store ptr %0, ptr %2, align 8
  %3 = load ptr, ptr %2, align 8
  %4 = call noundef nonnull align 8 dereferenceable(32) ptr @_ZN4llvm4User6OpFromILi0ENS_18DSOLocalEquivalentEEERNS_3UseEPKT0_(ptr noundef %3)
  ret ptr %4
}

; Function Attrs: mustprogress nounwind uwtable
define linkonce_odr hidden noundef ptr @_ZNK4llvm11GlobalValue7getTypeEv(ptr noundef nonnull align 8 dereferenceable(48) %0) #1 comdat align 2 {
  %2 = alloca ptr, align 8
  store ptr %0, ptr %2, align 8
  %3 = load ptr, ptr %2, align 8
  %4 = call noundef ptr @_ZNK4llvm5Value7getTypeEv(ptr noundef nonnull align 8 dereferenceable(24) %3)
  %5 = call noundef ptr @_ZN4llvm4castINS_11PointerTypeENS_4TypeEEEDcPT0_(ptr noundef %4)
  ret ptr %5
}

; Function Attrs: mustprogress nounwind uwtable
define dso_local void @_ZN4llvm18DSOLocalEquivalentC2EPNS_11GlobalValueE(ptr noundef nonnull align 8 dereferenceable(24) %0, ptr noundef %1) unnamed_addr #1 align 2 {
  %3 = alloca ptr, align 8
  %4 = alloca ptr, align 8
  store ptr %0, ptr %3, align 8
  store ptr %1, ptr %4, align 8
  %5 = load ptr, ptr %3, align 8
  %6 = load ptr, ptr %4, align 8
  %7 = call noundef ptr @_ZNK4llvm11GlobalValue7getTypeEv(ptr noundef nonnull align 8 dereferenceable(48) %6)
  %8 = call noundef nonnull align 8 dereferenceable(32) ptr @_ZN4llvm18DSOLocalEquivalent2OpILi0EEERNS_3UseEv(ptr noundef nonnull align 8 dereferenceable(24) %5)
  call void @_ZN4llvm8ConstantC2EPNS_4TypeENS_5Value7ValueTyEPNS_3UseEj(ptr noundef nonnull align 8 dereferenceable(24) %5, ptr noundef %7, i32 noundef 6, ptr noundef %8, i32 noundef 1)
  %9 = load ptr, ptr %4, align 8
  call void @_ZN4llvm18DSOLocalEquivalent10setOperandEjPNS_5ValueE(ptr noundef nonnull align 8 dereferenceable(24) %5, i32 noundef 0, ptr noundef %9)
  ret void
}