; Function Attrs: mustprogress nounwind uwtable
define dso_local void @_ZN4llvm18DSOLocalEquivalentC2EPNS_11GlobalValueE(ptr noundef nonnull align 8 dereferenceable(24) %0, ptr noundef %1) unnamed_addr #0 align 2 {
  %3 = getelementptr inbounds nuw i8, ptr %1, i64 8
  %4 = load ptr, ptr %3, align 8
  tail call void @_ZN4llvm5ValueC2EPNS_4TypeEj(ptr noundef nonnull align 8 dereferenceable(24) %0, ptr noundef %4, i32 noundef 6) #28
  %5 = getelementptr inbounds nuw i8, ptr %0, i64 4
  %6 = load i32, ptr %5, align 4
  %7 = and i32 %6, -134217728
  %8 = or disjoint i32 %7, 1
  store i32 %8, ptr %5, align 4
  %9 = getelementptr inbounds i8, ptr %0, i64 -32
  %10 = load ptr, ptr %9, align 8
  %.not.i.i.i = icmp eq ptr %10, null
  br i1 %.not.i.i.i, label %19, label %11

11:                                               ; preds = %2
  %12 = getelementptr inbounds i8, ptr %0, i64 -24
  %13 = load ptr, ptr %12, align 8
  %14 = getelementptr inbounds i8, ptr %0, i64 -16
  %15 = load ptr, ptr %14, align 8
  store ptr %13, ptr %15, align 8
  %.not.i.i.i.i = icmp eq ptr %13, null
  br i1 %.not.i.i.i.i, label %19, label %16

16:                                               ; preds = %11
  %17 = load ptr, ptr %14, align 8
  %18 = getelementptr inbounds nuw i8, ptr %13, i64 16
  store ptr %17, ptr %18, align 8
  br label %19

19:                                               ; preds = %2, %11, %16
  store ptr %1, ptr %9, align 8
  %20 = getelementptr inbounds nuw i8, ptr %1, i64 16
  %21 = load ptr, ptr %20, align 8
  %22 = getelementptr inbounds i8, ptr %0, i64 -24
  store ptr %21, ptr %22, align 8
  %.not.i.i.i.i.i = icmp eq ptr %21, null
  br i1 %.not.i.i.i.i.i, label %_ZN4llvm18DSOLocalEquivalent10setOperandEjPNS_5ValueE.exit, label %23

23:                                               ; preds = %19
  %24 = getelementptr inbounds nuw i8, ptr %21, i64 16
  store ptr %22, ptr %24, align 8
  br label %_ZN4llvm18DSOLocalEquivalent10setOperandEjPNS_5ValueE.exit

_ZN4llvm18DSOLocalEquivalent10setOperandEjPNS_5ValueE.exit: ; preds = %19, %23
  %25 = getelementptr inbounds i8, ptr %0, i64 -16
  store ptr %20, ptr %25, align 8
  store ptr %9, ptr %20, align 8
  ret void
}